; Function Attrs: mustprogress nounwind uwtable
define hidden void @_ZN13SharedRuntime31throw_StackOverflowError_commonEP10JavaThreadb(ptr noundef %0, i1 noundef zeroext %1) local_unnamed_addr #0 align 2 {
  %3 = alloca %class.methodHandle, align 8
  %4 = load ptr, ptr getelementptr inbounds (i8, ptr @_ZN9vmClasses8_klassesE, i64 200), align 8
  %5 = tail call noundef ptr @_ZN13InstanceKlass17allocate_instanceEP10JavaThread(ptr noundef nonnull align 8 dereferenceable(464) %4, ptr noundef %0) #18
  %6 = getelementptr inbounds i8, ptr %0, i64 8
  %7 = load ptr, ptr %6, align 8
  %.not = icmp eq ptr %7, null
  br i1 %.not, label %8, label %32

8:                                                ; preds = %2
  br i1 %1, label %9, label %11

9:                                                ; preds = %8
  %10 = tail call noundef ptr @_ZN8Universe36delayed_stack_overflow_error_messageEv() #18
  tail call void @_ZN19java_lang_Throwable11set_messageEP7oopDescS1_(ptr noundef %5, ptr noundef %10) #18
  br label %11

11:                                               ; preds = %9, %8
  %12 = icmp eq ptr %5, null
  br i1 %12, label %_ZN6HandleC2EP6ThreadP7oopDesc.exit, label %13

13:                                               ; preds = %11
  %14 = getelementptr inbounds i8, ptr %0, i64 808
  %15 = load ptr, ptr %14, align 8
  %16 = getelementptr inbounds i8, ptr %15, i64 40
  %17 = load ptr, ptr %16, align 8
  %18 = getelementptr inbounds i8, ptr %15, i64 32
  %19 = load ptr, ptr %18, align 8
  %20 = ptrtoint ptr %17 to i64
  %21 = ptrtoint ptr %19 to i64
  %22 = sub i64 %20, %21
  %.not.i.i.i.i = icmp ult i64 %22, 8
  br i1 %.not.i.i.i.i, label %25, label %23

23:                                               ; preds = %13
  %24 = getelementptr inbounds i8, ptr %19, i64 8
  store ptr %24, ptr %18, align 8
  br label %_ZN10HandleArea15allocate_handleEP7oopDesc.exit.i

25:                                               ; preds = %13
  %26 = tail call noundef ptr @_ZN5Arena4growEmN17AllocFailStrategy13AllocFailEnumE(ptr noundef nonnull align 8 dereferenceable(48) %15, i64 noundef 8, i32 noundef 0) #18
  br label %_ZN10HandleArea15allocate_handleEP7oopDesc.exit.i

_ZN10HandleArea15allocate_handleEP7oopDesc.exit.i: ; preds = %25, %23
  %.0.i.i.i.i = phi ptr [ %19, %23 ], [ %26, %25 ]
  store ptr %5, ptr %.0.i.i.i.i, align 8
  br label %_ZN6HandleC2EP6ThreadP7oopDesc.exit

_ZN6HandleC2EP6ThreadP7oopDesc.exit:              ; preds = %11, %_ZN10HandleArea15allocate_handleEP7oopDesc.exit.i
  %storemerge.i = phi ptr [ %.0.i.i.i.i, %_ZN10HandleArea15allocate_handleEP7oopDesc.exit.i ], [ null, %11 ]
  %27 = load i8, ptr @StackTraceInThrowable, align 1
  %28 = trunc i8 %27 to i1
  br i1 %28, label %29, label %30

29:                                               ; preds = %_ZN6HandleC2EP6ThreadP7oopDesc.exit
  call void @llvm.memset.p0.i64(ptr noundef nonnull align 8 dereferenceable(16) %3, i8 0, i64 16, i1 false)
  call void @_ZN19java_lang_Throwable19fill_in_stack_traceE6HandleRK12methodHandle(ptr %storemerge.i, ptr noundef nonnull align 8 dereferenceable(16) %3) #18
  call void @_ZN12methodHandleD1Ev(ptr noundef nonnull align 8 dereferenceable(16) %3) #18
  br label %30

30:                                               ; preds = %29, %_ZN6HandleC2EP6ThreadP7oopDesc.exit
  call void @_ZN10JavaThread25clear_scopedValueBindingsEv(ptr noundef nonnull align 8 dereferenceable(1800) %0) #18
  %31 = call noundef i32 asm sideeffect "lock xaddl $0,($2)", "=r,0,r,~{cc},~{memory},~{dirflag},~{fpsr},~{flags}"(i32 1, ptr nonnull @_ZN10Exceptions22_stack_overflow_errorsE) #18, !srcloc !34
  call void @_ZN13SharedRuntime30throw_and_post_jvmti_exceptionEP10JavaThread6Handle(ptr noundef nonnull %0, ptr %storemerge.i)
  br label %32

32:                                               ; preds = %2, %30
  ret void
}